target datalayout = "e-m:e-p270:32:32-p271:32:32-p272:64:64-i64:64-i128:128-f80:128-n8:16:32:64-S128"
target triple = "x86_64-pc-linux-gnu"

%struct._sapi_module_struct = type { ptr, ptr, ptr, ptr, ptr, ptr, ptr, ptr, ptr, ptr, ptr, ptr, ptr, ptr, ptr, ptr, ptr, ptr, ptr, ptr, ptr, ptr, ptr, ptr, i32, i32, ptr, ptr, ptr, ptr, ptr, ptr, i32, ptr, ptr, ptr }
%struct._zend_array = type { %struct._zend_refcounted_h, %union.anon.0, i32, %union.anon.1, i32, i32, i32, i32, i64, ptr }
%struct._zend_refcounted_h = type { i32, %union.anon }
%union.anon = type { i32 }
%union.anon.0 = type { i32 }
%union.anon.1 = type { ptr }
%struct._zval_struct = type { %union._zend_value, %union.anon.3, %union.anon.6 }
%union._zend_value = type { i64 }
%union.anon.3 = type { i32 }
%union.anon.6 = type { i32 }
%struct._zend_string = type { %struct._zend_refcounted_h, i64, i64, [1 x i8] }
%struct._Bucket = type { %struct._zval_struct, i64, ptr }

@sapi_module = external global %struct._sapi_module_struct, align 8
@.str.30 = private unnamed_addr constant [9 x i8] c"disabled\00", align 1
@.str.116 = private unnamed_addr constant [12 x i8] c"</td></tr>\0A\00", align 1
@.str.129 = private unnamed_addr constant [51 x i8] c"<tr><td class=\22e\22>Registered %s</td><td class=\22v\22>\00", align 1
@.str.130 = private unnamed_addr constant [19 x i8] c"\0ARegistered %s => \00", align 1
@.str.131 = private unnamed_addr constant [3 x i8] c", \00", align 1
@.str.132 = private unnamed_addr constant [14 x i8] c"Registered %s\00", align 1
@.str.133 = private unnamed_addr constant [16 x i8] c"none registered\00", align 1
@.str.134 = private unnamed_addr constant [6 x i8] c"utf-8\00", align 1

; Function Attrs: nounwind uwtable
define internal i32 @php_info_print_html_esc(ptr noundef %0, i64 noundef %1) #0 {
  %3 = alloca i32, align 4
  %4 = alloca i32, align 4
  %5 = alloca ptr, align 8
  %6 = alloca ptr, align 8
  %7 = alloca i64, align 8
  %8 = alloca i64, align 8
  %9 = alloca ptr, align 8
  store ptr %0, ptr %6, align 8
  store i64 %1, ptr %7, align 8
  %10 = load ptr, ptr %6, align 8
  %11 = load i64, ptr %7, align 8
  %12 = call ptr @php_escape_html_entities(ptr noundef %10, i64 noundef %11, i32 noundef 0, i32 noundef 3, ptr noundef @.str.134)
  store ptr %12, ptr %9, align 8
  %13 = load ptr, ptr %9, align 8
  %14 = getelementptr inbounds %struct._zend_string, ptr %13, i32 0, i32 3
  %15 = getelementptr inbounds [1 x i8], ptr %14, i64 0, i64 0
  %16 = load ptr, ptr %9, align 8
  %17 = getelementptr inbounds %struct._zend_string, ptr %16, i32 0, i32 2
  %18 = load i64, ptr %17, align 8
  %19 = call i64 @php_output_write(ptr noundef %15, i64 noundef %18)
  store i64 %19, ptr %8, align 8
  %20 = load ptr, ptr %9, align 8
  store ptr %20, ptr %5, align 8
  %21 = load ptr, ptr %5, align 8
  %22 = getelementptr inbounds %struct._zend_refcounted_h, ptr %21, i32 0, i32 1
  %23 = load i32, ptr %22, align 4
  store i32 %23, ptr %3, align 4
  %24 = load i32, ptr %3, align 4
  %25 = and i32 %24, 1008
  %26 = and i32 %25, 64
  %27 = icmp ne i32 %26, 0
  br i1 %27, label %41, label %28

28:                                               ; preds = %2
  %29 = load ptr, ptr %5, align 8
  %30 = getelementptr inbounds %struct._zend_refcounted_h, ptr %29, i32 0, i32 1
  %31 = load i32, ptr %30, align 4
  store i32 %31, ptr %4, align 4
  %32 = load i32, ptr %4, align 4
  %33 = and i32 %32, 1008
  %34 = and i32 %33, 128
  %35 = icmp ne i32 %34, 0
  br i1 %35, label %36, label %38

36:                                               ; preds = %28
  %37 = load ptr, ptr %5, align 8
  call void @free(ptr noundef %37) #10
  br label %40

38:                                               ; preds = %28
  %39 = load ptr, ptr %5, align 8
  call void @_efree(ptr noundef %39) #10
  br label %40

40:                                               ; preds = %38, %36
  br label %41

41:                                               ; preds = %40, %2
  %42 = load i64, ptr %8, align 8
  %43 = trunc i64 %42 to i32
  ret i32 %43
}

; Function Attrs: nounwind uwtable
define internal void @php_info_print_stream_hash(ptr noundef %0, ptr noundef %1) #0 {
  %3 = alloca ptr, align 8
  %4 = alloca ptr, align 8
  %5 = alloca ptr, align 8
  %6 = alloca ptr, align 8
  %7 = alloca ptr, align 8
  %8 = alloca ptr, align 8
  %9 = alloca ptr, align 8
  %10 = alloca ptr, align 8
  %11 = alloca i32, align 4
  %12 = alloca ptr, align 8
  %13 = alloca ptr, align 8
  %14 = alloca ptr, align 8
  %15 = alloca ptr, align 8
  %16 = alloca [128 x i8], align 16
  store ptr %0, ptr %8, align 8
  store ptr %1, ptr %9, align 8
  %17 = load ptr, ptr %9, align 8
  %18 = icmp ne ptr %17, null
  br i1 %18, label %19, label %136

19:                                               ; preds = %2
  %20 = load ptr, ptr %9, align 8
  store ptr %20, ptr %4, align 8
  %21 = load ptr, ptr %4, align 8
  %22 = getelementptr inbounds %struct._zend_array, ptr %21, i32 0, i32 5
  %23 = load i32, ptr %22, align 4
  %24 = icmp ne i32 %23, 0
  br i1 %24, label %25, label %130

25:                                               ; preds = %19
  store i32 1, ptr %11, align 4
  %26 = load i32, ptr getelementptr inbounds (%struct._sapi_module_struct, ptr @sapi_module, i32 0, i32 32), align 8
  %27 = icmp ne i32 %26, 0
  br i1 %27, label %31, label %28

28:                                               ; preds = %25
  %29 = load ptr, ptr %8, align 8
  %30 = call i32 (ptr, ...) @php_info_printf(ptr noundef @.str.129, ptr noundef %29)
  br label %34

31:                                               ; preds = %25
  %32 = load ptr, ptr %8, align 8
  %33 = call i32 (ptr, ...) @php_info_printf(ptr noundef @.str.130, ptr noundef %32)
  br label %34

34:                                               ; preds = %31, %28
  %35 = load ptr, ptr %9, align 8
  %36 = getelementptr inbounds %struct._zend_array, ptr %35, i32 0, i32 1
  %37 = load i32, ptr %36, align 8
  %38 = and i32 %37, 4
  %39 = icmp ne i32 %38, 0
  br i1 %39, label %121, label %40

40:                                               ; preds = %34
  br label %41

41:                                               ; preds = %40
  %42 = load ptr, ptr %9, align 8
  store ptr %42, ptr %12, align 8
  %43 = load ptr, ptr %12, align 8
  %44 = getelementptr inbounds %struct._zend_array, ptr %43, i32 0, i32 3
  %45 = load ptr, ptr %44, align 8
  %46 = getelementptr inbounds %struct._Bucket, ptr %45, i64 0
  store ptr %46, ptr %13, align 8
  %47 = load ptr, ptr %12, align 8
  %48 = getelementptr inbounds %struct._zend_array, ptr %47, i32 0, i32 3
  %49 = load ptr, ptr %48, align 8
  %50 = load ptr, ptr %12, align 8
  %51 = getelementptr inbounds %struct._zend_array, ptr %50, i32 0, i32 4
  %52 = load i32, ptr %51, align 8
  %53 = zext i32 %52 to i64
  %54 = getelementptr inbounds %struct._Bucket, ptr %49, i64 %53
  store ptr %54, ptr %14, align 8
  %55 = load ptr, ptr %12, align 8
  %56 = getelementptr inbounds %struct._zend_array, ptr %55, i32 0, i32 1
  %57 = load i32, ptr %56, align 8
  %58 = and i32 %57, 4
  %59 = icmp ne i32 %58, 0
  %60 = xor i1 %59, true
  call void @llvm.assume(i1 %60)
  br label %61

61:                                               ; preds = %116, %41
  %62 = load ptr, ptr %13, align 8
  %63 = load ptr, ptr %14, align 8
  %64 = icmp ne ptr %62, %63
  br i1 %64, label %65, label %119

65:                                               ; preds = %61
  %66 = load ptr, ptr %13, align 8
  %67 = getelementptr inbounds %struct._Bucket, ptr %66, i32 0, i32 0
  store ptr %67, ptr %15, align 8
  %68 = load ptr, ptr %15, align 8
  store ptr %68, ptr %3, align 8
  %69 = load ptr, ptr %3, align 8
  %70 = getelementptr inbounds %struct._zval_struct, ptr %69, i32 0, i32 1
  %71 = load i8, ptr %70, align 8
  %72 = zext i8 %71 to i32
  %73 = icmp eq i32 %72, 0
  %74 = xor i1 %73, true
  %75 = xor i1 %74, true
  %76 = zext i1 %75 to i32
  %77 = sext i32 %76 to i64
  %78 = icmp ne i64 %77, 0
  br i1 %78, label %79, label %80

79:                                               ; preds = %65
  br label %116

80:                                               ; preds = %65
  %81 = load ptr, ptr %13, align 8
  %82 = getelementptr inbounds %struct._Bucket, ptr %81, i32 0, i32 2
  %83 = load ptr, ptr %82, align 8
  store ptr %83, ptr %10, align 8
  %84 = load ptr, ptr %10, align 8
  %85 = icmp ne ptr %84, null
  br i1 %85, label %86, label %115

86:                                               ; preds = %80
  %87 = load i32, ptr %11, align 4
  %88 = icmp ne i32 %87, 0
  br i1 %88, label %89, label %90

89:                                               ; preds = %86
  store i32 0, ptr %11, align 4
  br label %95

90:                                               ; preds = %86
  store ptr @.str.131, ptr %5, align 8
  %91 = load ptr, ptr %5, align 8
  %92 = load ptr, ptr %5, align 8
  %93 = call i64 @strlen(ptr noundef %92) #9
  %94 = call i64 @php_output_write(ptr noundef %91, i64 noundef %93) #10
  br label %95

95:                                               ; preds = %90, %89
  %96 = load i32, ptr getelementptr inbounds (%struct._sapi_module_struct, ptr @sapi_module, i32 0, i32 32), align 8
  %97 = icmp ne i32 %96, 0
  br i1 %97, label %106, label %98

98:                                               ; preds = %95
  %99 = load ptr, ptr %10, align 8
  %100 = getelementptr inbounds %struct._zend_string, ptr %99, i32 0, i32 3
  %101 = getelementptr inbounds [1 x i8], ptr %100, i64 0, i64 0
  %102 = load ptr, ptr %10, align 8
  %103 = getelementptr inbounds %struct._zend_string, ptr %102, i32 0, i32 2
  %104 = load i64, ptr %103, align 8
  %105 = call i32 @php_info_print_html_esc(ptr noundef %101, i64 noundef %104)
  br label %114

106:                                              ; preds = %95
  %107 = load ptr, ptr %10, align 8
  %108 = getelementptr inbounds %struct._zend_string, ptr %107, i32 0, i32 3
  %109 = getelementptr inbounds [1 x i8], ptr %108, i64 0, i64 0
  store ptr %109, ptr %6, align 8
  %110 = load ptr, ptr %6, align 8
  %111 = load ptr, ptr %6, align 8
  %112 = call i64 @strlen(ptr noundef %111) #9
  %113 = call i64 @php_output_write(ptr noundef %110, i64 noundef %112) #10
  br label %114

114:                                              ; preds = %106, %98
  br label %115

115:                                              ; preds = %114, %80
  br label %116

116:                                              ; preds = %115, %79
  %117 = load ptr, ptr %13, align 8
  %118 = getelementptr inbounds %struct._Bucket, ptr %117, i32 1
  store ptr %118, ptr %13, align 8
  br label %61

119:                                              ; preds = %61
  br label %120

120:                                              ; preds = %119
  br label %121

121:                                              ; preds = %120, %34
  %122 = load i32, ptr getelementptr inbounds (%struct._sapi_module_struct, ptr @sapi_module, i32 0, i32 32), align 8
  %123 = icmp ne i32 %122, 0
  br i1 %123, label %129, label %124

124:                                              ; preds = %121
  store ptr @.str.116, ptr %7, align 8
  %125 = load ptr, ptr %7, align 8
  %126 = load ptr, ptr %7, align 8
  %127 = call i64 @strlen(ptr noundef %126) #9
  %128 = call i64 @php_output_write(ptr noundef %125, i64 noundef %127) #10
  br label %129

129:                                              ; preds = %124, %121
  br label %135

130:                                              ; preds = %19
  %131 = getelementptr inbounds [128 x i8], ptr %16, i64 0, i64 0
  %132 = load ptr, ptr %8, align 8
  %133 = call i32 (ptr, i64, ptr, ...) @ap_php_snprintf(ptr noundef %131, i64 noundef 128, ptr noundef @.str.132, ptr noundef %132)
  %134 = getelementptr inbounds [128 x i8], ptr %16, i64 0, i64 0
  call void (i32, ...) @php_info_print_table_row(i32 noundef 2, ptr noundef %134, ptr noundef @.str.133)
  br label %135

135:                                              ; preds = %130, %129
  br label %138

136:                                              ; preds = %2
  %137 = load ptr, ptr %8, align 8
  call void (i32, ...) @php_info_print_table_row(i32 noundef 2, ptr noundef %137, ptr noundef @.str.30)
  br label %138

138:                                              ; preds = %136, %135
  ret void
}