; Function Attrs: nounwind uwtable
define internal fastcc void @php_info_print_stream_hash(ptr noundef %0, ptr noundef readonly %1) unnamed_addr #0 {
  %3 = alloca [128 x i8], align 16
  %.not = icmp eq ptr %1, null
  br i1 %.not, label %55, label %4

4:                                                ; preds = %2
  %5 = getelementptr inbounds i8, ptr %1, i64 28
  %6 = load i32, ptr %5, align 4
  %.not33 = icmp eq i32 %6, 0
  br i1 %.not33, label %53, label %7

7:                                                ; preds = %4
  %8 = load i32, ptr getelementptr inbounds (%struct._sapi_module_struct, ptr @sapi_module, i64 0, i32 32), align 8
  %.not34 = icmp eq i32 %8, 0
  %.str.129..str.130 = select i1 %.not34, ptr @.str.129, ptr @.str.130
  tail call void (ptr, ...) @php_info_printf(ptr noundef nonnull %.str.129..str.130, ptr noundef %0)
  %9 = getelementptr inbounds i8, ptr %1, i64 8
  %10 = load i32, ptr %9, align 8
  %11 = and i32 %10, 4
  %.not35 = icmp eq i32 %11, 0
  br i1 %.not35, label %12, label %.loopexit

12:                                               ; preds = %7
  %13 = getelementptr inbounds i8, ptr %1, i64 16
  %14 = load ptr, ptr %13, align 8
  %15 = getelementptr inbounds i8, ptr %1, i64 24
  %16 = load i32, ptr %15, align 8
  %17 = zext i32 %16 to i64
  %18 = getelementptr inbounds %struct._Bucket, ptr %14, i64 %17
  %.not3641 = icmp eq i32 %16, 0
  br i1 %.not3641, label %.loopexit, label %.lr.ph

.lr.ph:                                           ; preds = %12, %php_info_print_html_esc.exit
  %.043 = phi i32 [ %.2, %php_info_print_html_esc.exit ], [ 1, %12 ]
  %.03042 = phi ptr [ %49, %php_info_print_html_esc.exit ], [ %14, %12 ]
  %19 = getelementptr inbounds i8, ptr %.03042, i64 8
  %20 = load i8, ptr %19, align 8
  %21 = icmp eq i8 %20, 0
  br i1 %21, label %php_info_print_html_esc.exit, label %22

22:                                               ; preds = %.lr.ph
  %23 = getelementptr inbounds i8, ptr %.03042, i64 24
  %24 = load ptr, ptr %23, align 8
  %.not37 = icmp eq ptr %24, null
  br i1 %.not37, label %php_info_print_html_esc.exit, label %25

25:                                               ; preds = %22
  %.not38 = icmp eq i32 %.043, 0
  br i1 %.not38, label %26, label %28

26:                                               ; preds = %25
  %27 = tail call i64 @php_output_write(ptr noundef nonnull @.str.131, i64 noundef 2) #14
  br label %28

28:                                               ; preds = %25, %26
  %29 = load i32, ptr getelementptr inbounds (%struct._sapi_module_struct, ptr @sapi_module, i64 0, i32 32), align 8
  %.not39 = icmp eq i32 %29, 0
  %30 = getelementptr inbounds i8, ptr %24, i64 24
  br i1 %.not39, label %31, label %46

31:                                               ; preds = %28
  %32 = getelementptr inbounds i8, ptr %24, i64 16
  %33 = load i64, ptr %32, align 8
  %34 = tail call ptr @php_escape_html_entities(ptr noundef nonnull %30, i64 noundef %33, i32 noundef 0, i32 noundef 3, ptr noundef nonnull @.str.134) #14
  %35 = getelementptr inbounds i8, ptr %34, i64 24
  %36 = getelementptr inbounds i8, ptr %34, i64 16
  %37 = load i64, ptr %36, align 8
  %38 = tail call i64 @php_output_write(ptr noundef nonnull %35, i64 noundef %37) #14
  %39 = getelementptr inbounds i8, ptr %34, i64 4
  %40 = load i32, ptr %39, align 4
  %41 = and i32 %40, 64
  %.not.i = icmp eq i32 %41, 0
  br i1 %.not.i, label %42, label %php_info_print_html_esc.exit

42:                                               ; preds = %31
  %43 = and i32 %40, 128
  %.not11.i = icmp eq i32 %43, 0
  br i1 %.not11.i, label %45, label %44

44:                                               ; preds = %42
  tail call void @free(ptr noundef nonnull %34) #14
  br label %php_info_print_html_esc.exit

45:                                               ; preds = %42
  tail call void @_efree(ptr noundef nonnull %34) #14
  br label %php_info_print_html_esc.exit

46:                                               ; preds = %28
  %47 = tail call i64 @strlen(ptr noundef nonnull dereferenceable(1) %30) #13
  %48 = tail call i64 @php_output_write(ptr noundef nonnull %30, i64 noundef %47) #14
  br label %php_info_print_html_esc.exit

php_info_print_html_esc.exit:                     ; preds = %45, %44, %31, %22, %46, %.lr.ph
  %.2 = phi i32 [ %.043, %.lr.ph ], [ 0, %46 ], [ %.043, %22 ], [ 0, %31 ], [ 0, %44 ], [ 0, %45 ]
  %49 = getelementptr inbounds i8, ptr %.03042, i64 32
  %.not36 = icmp eq ptr %49, %18
  br i1 %.not36, label %.loopexit, label %.lr.ph

.loopexit:                                        ; preds = %php_info_print_html_esc.exit, %12, %7
  %50 = load i32, ptr getelementptr inbounds (%struct._sapi_module_struct, ptr @sapi_module, i64 0, i32 32), align 8
  %.not40 = icmp eq i32 %50, 0
  br i1 %.not40, label %51, label %56

51:                                               ; preds = %.loopexit
  %52 = tail call i64 @php_output_write(ptr noundef nonnull @.str.116, i64 noundef 11) #14
  br label %56

53:                                               ; preds = %4
  %54 = call i32 (ptr, i64, ptr, ...) @ap_php_snprintf(ptr noundef nonnull %3, i64 noundef 128, ptr noundef nonnull @.str.132, ptr noundef %0) #14
  call void (i32, ...) @php_info_print_table_row(i32 noundef 2, ptr noundef nonnull %3, ptr noundef nonnull @.str.133)
  br label %56

55:                                               ; preds = %2
  tail call void (i32, ...) @php_info_print_table_row(i32 noundef 2, ptr noundef %0, ptr noundef nonnull @.str.30)
  br label %56

56:                                               ; preds = %53, %51, %.loopexit, %55
  ret void
}